target datalayout = "e-m:e-p270:32:32-p271:32:32-p272:64:64-i64:64-i128:128-f80:128-n8:16:32:64-S128"
target triple = "x86_64-pc-linux-gnu"

%struct._address = type { i32, i32, ptr, ptr }
%struct._packet_info = type { ptr, ptr, i32, i32, %struct.nstime_t, %struct.nstime_t, %struct.nstime_t, i32, ptr, ptr, ptr, ptr, %struct._address, %struct._address, %struct._address, %struct._address, %struct._address, %struct._address, i32, ptr, i32, %struct.anon.3, i32, i32, i32, i32, ptr, i32, ptr, ptr, i16, i16, i32, i32, i16, i32, i32, ptr, ptr, ptr, i8, i8, i16, i16, i16, i32, i16, i16, ptr, ptr, ptr, ptr, ptr, i32 }
%struct.nstime_t = type { i64, i32 }
%struct.anon.3 = type { i8, [3 x i8] }
%struct.conversation = type { ptr, ptr, ptr, i32, i32, i32, ptr, ptr, i32, ptr }
%struct.epl_convo = type { i8, i16, i32, i32, i32, i32, ptr, ptr, ptr, i32, i8, i8, [4 x %struct.read_req] }
%struct.read_req = type { i16, i8, i8, ptr, ptr }

@current_convo_generation = hidden global i32 0, align 4
@proto_epl = internal global i32 0, align 4
@epl_profiles_by_nodeid = internal global ptr null, align 8
@epl_profiles_by_address = internal global ptr null, align 8
@epl_placeholder_mac = internal global %struct._address { i32 1, i32 6, ptr @epl_placeholder_mac_addr, ptr null }, align 8
@pdo_mapping_scope = internal global ptr null, align 8
@epl_default_profile = internal global ptr null, align 8

; Function Attrs: nounwind uwtable
define internal ptr @epl_get_convo(ptr noundef %0, i32 noundef %1) #0 {
  %3 = alloca ptr, align 8
  %4 = alloca i32, align 4
  %5 = alloca ptr, align 8
  %6 = alloca ptr, align 8
  %7 = alloca i32, align 4
  %8 = alloca ptr, align 8
  %9 = alloca ptr, align 8
  store ptr %0, ptr %3, align 8
  store i32 %1, ptr %4, align 4
  store ptr @epl_placeholder_mac, ptr %8, align 8
  store ptr @epl_placeholder_mac, ptr %9, align 8
  %10 = load i32, ptr %4, align 4
  %11 = and i32 %10, 2
  %12 = icmp ne i32 %11, 0
  br i1 %12, label %13, label %26

13:                                               ; preds = %2
  %14 = load ptr, ptr %3, align 8
  %15 = getelementptr inbounds %struct._packet_info, ptr %14, i32 0, i32 24
  %16 = load i32, ptr %15, align 8
  store i32 %16, ptr %7, align 4
  %17 = load ptr, ptr %3, align 8
  %18 = getelementptr inbounds %struct._packet_info, ptr %17, i32 0, i32 13
  %19 = getelementptr inbounds %struct._address, ptr %18, i32 0, i32 0
  %20 = load i32, ptr %19, align 8
  %21 = icmp eq i32 %20, 1
  br i1 %21, label %22, label %25

22:                                               ; preds = %13
  %23 = load ptr, ptr %3, align 8
  %24 = getelementptr inbounds %struct._packet_info, ptr %23, i32 0, i32 13
  store ptr %24, ptr %9, align 8
  br label %25

25:                                               ; preds = %22, %13
  br label %39

26:                                               ; preds = %2
  %27 = load ptr, ptr %3, align 8
  %28 = getelementptr inbounds %struct._packet_info, ptr %27, i32 0, i32 23
  %29 = load i32, ptr %28, align 4
  store i32 %29, ptr %7, align 4
  %30 = load ptr, ptr %3, align 8
  %31 = getelementptr inbounds %struct._packet_info, ptr %30, i32 0, i32 12
  %32 = getelementptr inbounds %struct._address, ptr %31, i32 0, i32 0
  %33 = load i32, ptr %32, align 8
  %34 = icmp eq i32 %33, 1
  br i1 %34, label %35, label %38

35:                                               ; preds = %26
  %36 = load ptr, ptr %3, align 8
  %37 = getelementptr inbounds %struct._packet_info, ptr %36, i32 0, i32 12
  store ptr %37, ptr %9, align 8
  br label %38

38:                                               ; preds = %35, %26
  br label %39

39:                                               ; preds = %38, %25
  store ptr @epl_placeholder_mac, ptr %8, align 8
  %40 = load ptr, ptr %3, align 8
  %41 = getelementptr inbounds %struct._packet_info, ptr %40, i32 0, i32 3
  %42 = load i32, ptr %41, align 4
  %43 = load ptr, ptr %8, align 8
  %44 = load ptr, ptr %8, align 8
  %45 = load ptr, ptr %3, align 8
  %46 = getelementptr inbounds %struct._packet_info, ptr %45, i32 0, i32 22
  %47 = load i32, ptr %46, align 8
  %48 = call i32 @conversation_pt_to_conversation_type(i32 noundef %47)
  %49 = load i32, ptr %7, align 4
  %50 = load i32, ptr %7, align 4
  %51 = call ptr @find_conversation(i32 noundef %42, ptr noundef %43, ptr noundef %44, i32 noundef %48, i32 noundef %49, i32 noundef %50, i32 noundef 196608)
  store ptr %51, ptr %6, align 8
  %52 = icmp ne ptr %51, null
  br i1 %52, label %53, label %81

53:                                               ; preds = %39
  %54 = load i32, ptr %4, align 4
  %55 = and i32 %54, 4
  %56 = icmp ne i32 %55, 0
  br i1 %56, label %57, label %66

57:                                               ; preds = %53
  %58 = load ptr, ptr %6, align 8
  %59 = getelementptr inbounds %struct.conversation, ptr %58, i32 0, i32 4
  %60 = load i32, ptr %59, align 4
  %61 = load ptr, ptr %3, align 8
  %62 = getelementptr inbounds %struct._packet_info, ptr %61, i32 0, i32 3
  %63 = load i32, ptr %62, align 4
  %64 = icmp ne i32 %60, %63
  br i1 %64, label %65, label %66

65:                                               ; preds = %57
  br label %82

66:                                               ; preds = %57, %53
  %67 = load ptr, ptr %3, align 8
  %68 = getelementptr inbounds %struct._packet_info, ptr %67, i32 0, i32 3
  %69 = load i32, ptr %68, align 4
  %70 = load ptr, ptr %6, align 8
  %71 = getelementptr inbounds %struct.conversation, ptr %70, i32 0, i32 5
  %72 = load i32, ptr %71, align 8
  %73 = icmp ugt i32 %69, %72
  br i1 %73, label %74, label %80

74:                                               ; preds = %66
  %75 = load ptr, ptr %3, align 8
  %76 = getelementptr inbounds %struct._packet_info, ptr %75, i32 0, i32 3
  %77 = load i32, ptr %76, align 4
  %78 = load ptr, ptr %6, align 8
  %79 = getelementptr inbounds %struct.conversation, ptr %78, i32 0, i32 5
  store i32 %77, ptr %79, align 8
  br label %80

80:                                               ; preds = %74, %66
  br label %95

81:                                               ; preds = %39
  br label %82

82:                                               ; preds = %81, %65
  %83 = load ptr, ptr %3, align 8
  %84 = getelementptr inbounds %struct._packet_info, ptr %83, i32 0, i32 3
  %85 = load i32, ptr %84, align 4
  %86 = load ptr, ptr %8, align 8
  %87 = load ptr, ptr %8, align 8
  %88 = load ptr, ptr %3, align 8
  %89 = getelementptr inbounds %struct._packet_info, ptr %88, i32 0, i32 22
  %90 = load i32, ptr %89, align 8
  %91 = call i32 @conversation_pt_to_conversation_type(i32 noundef %90)
  %92 = load i32, ptr %7, align 4
  %93 = load i32, ptr %7, align 4
  %94 = call nonnull ptr @conversation_new(i32 noundef %85, ptr noundef %86, ptr noundef %87, i32 noundef %91, i32 noundef %92, i32 noundef %93, i32 noundef 3)
  store ptr %94, ptr %6, align 8
  br label %95

95:                                               ; preds = %82, %80
  %96 = load ptr, ptr %6, align 8
  %97 = load i32, ptr @proto_epl, align 4
  %98 = call ptr @conversation_get_proto_data(ptr noundef %96, i32 noundef %97)
  store ptr %98, ptr %5, align 8
  %99 = load ptr, ptr %5, align 8
  %100 = icmp eq ptr %99, null
  br i1 %100, label %101, label %153

101:                                              ; preds = %95
  %102 = call ptr @wmem_file_scope()
  %103 = call noalias ptr @wmem_alloc0(ptr noundef %102, i64 noundef 152)
  store ptr %103, ptr %5, align 8
  %104 = load i32, ptr %7, align 4
  %105 = trunc i32 %104 to i8
  %106 = load ptr, ptr %5, align 8
  %107 = getelementptr inbounds %struct.epl_convo, ptr %106, i32 0, i32 0
  store i8 %105, ptr %107, align 8
  %108 = load i32, ptr @current_convo_generation, align 4
  %109 = load ptr, ptr %5, align 8
  %110 = getelementptr inbounds %struct.epl_convo, ptr %109, i32 0, i32 5
  store i32 %108, ptr %110, align 8
  %111 = load ptr, ptr @pdo_mapping_scope, align 8
  %112 = call noalias ptr @wmem_array_new(ptr noundef %111, i64 noundef 72)
  %113 = load ptr, ptr %5, align 8
  %114 = getelementptr inbounds %struct.epl_convo, ptr %113, i32 0, i32 6
  store ptr %112, ptr %114, align 8
  %115 = load ptr, ptr @pdo_mapping_scope, align 8
  %116 = call noalias ptr @wmem_array_new(ptr noundef %115, i64 noundef 72)
  %117 = load ptr, ptr %5, align 8
  %118 = getelementptr inbounds %struct.epl_convo, ptr %117, i32 0, i32 7
  store ptr %116, ptr %118, align 8
  %119 = load ptr, ptr @epl_profiles_by_address, align 8
  %120 = load ptr, ptr %9, align 8
  %121 = call ptr @wmem_map_lookup(ptr noundef %119, ptr noundef %120)
  %122 = load ptr, ptr %5, align 8
  %123 = getelementptr inbounds %struct.epl_convo, ptr %122, i32 0, i32 8
  store ptr %121, ptr %123, align 8
  %124 = load ptr, ptr %5, align 8
  %125 = getelementptr inbounds %struct.epl_convo, ptr %124, i32 0, i32 8
  %126 = load ptr, ptr %125, align 8
  %127 = icmp ne ptr %126, null
  br i1 %127, label %138, label %128

128:                                              ; preds = %101
  %129 = load ptr, ptr @epl_profiles_by_nodeid, align 8
  %130 = load ptr, ptr %5, align 8
  %131 = getelementptr inbounds %struct.epl_convo, ptr %130, i32 0, i32 0
  %132 = load i8, ptr %131, align 8
  %133 = zext i8 %132 to i64
  %134 = inttoptr i64 %133 to ptr
  %135 = call ptr @wmem_map_lookup(ptr noundef %129, ptr noundef %134)
  %136 = load ptr, ptr %5, align 8
  %137 = getelementptr inbounds %struct.epl_convo, ptr %136, i32 0, i32 8
  store ptr %135, ptr %137, align 8
  br label %138

138:                                              ; preds = %128, %101
  %139 = load ptr, ptr %5, align 8
  %140 = getelementptr inbounds %struct.epl_convo, ptr %139, i32 0, i32 8
  %141 = load ptr, ptr %140, align 8
  %142 = icmp ne ptr %141, null
  br i1 %142, label %147, label %143

143:                                              ; preds = %138
  %144 = load ptr, ptr @epl_default_profile, align 8
  %145 = load ptr, ptr %5, align 8
  %146 = getelementptr inbounds %struct.epl_convo, ptr %145, i32 0, i32 8
  store ptr %144, ptr %146, align 8
  br label %147

147:                                              ; preds = %143, %138
  %148 = load ptr, ptr %5, align 8
  %149 = getelementptr inbounds %struct.epl_convo, ptr %148, i32 0, i32 11
  store i8 0, ptr %149, align 1
  %150 = load ptr, ptr %6, align 8
  %151 = load i32, ptr @proto_epl, align 4
  %152 = load ptr, ptr %5, align 8
  call void @conversation_add_proto_data(ptr noundef %150, i32 noundef %151, ptr noundef %152)
  br label %153

153:                                              ; preds = %147, %95
  %154 = load ptr, ptr %5, align 8
  %155 = getelementptr inbounds %struct.epl_convo, ptr %154, i32 0, i32 5
  %156 = load i32, ptr %155, align 8
  %157 = load i32, ptr @current_convo_generation, align 4
  %158 = icmp ne i32 %156, %157
  br i1 %158, label %159, label %171

159:                                              ; preds = %153
  %160 = load ptr, ptr @pdo_mapping_scope, align 8
  %161 = call noalias ptr @wmem_array_new(ptr noundef %160, i64 noundef 72)
  %162 = load ptr, ptr %5, align 8
  %163 = getelementptr inbounds %struct.epl_convo, ptr %162, i32 0, i32 6
  store ptr %161, ptr %163, align 8
  %164 = load ptr, ptr @pdo_mapping_scope, align 8
  %165 = call noalias ptr @wmem_array_new(ptr noundef %164, i64 noundef 72)
  %166 = load ptr, ptr %5, align 8
  %167 = getelementptr inbounds %struct.epl_convo, ptr %166, i32 0, i32 7
  store ptr %165, ptr %167, align 8
  %168 = load i32, ptr @current_convo_generation, align 4
  %169 = load ptr, ptr %5, align 8
  %170 = getelementptr inbounds %struct.epl_convo, ptr %169, i32 0, i32 5
  store i32 %168, ptr %170, align 8
  br label %171

171:                                              ; preds = %159, %153
  %172 = load ptr, ptr %5, align 8
  ret ptr %172
}