; Function Attrs: nounwind uwtable
define internal fastcc ptr @epl_get_convo(ptr noundef %0, i32 noundef range(i32 1, 6) %1) unnamed_addr #2 {
  %3 = and i32 %1, 2
  %.not = icmp eq i32 %3, 0
  %. = select i1 %.not, i64 284, i64 288
  %.65 = select i1 %.not, i64 112, i64 136
  %4 = getelementptr inbounds nuw i8, ptr %0, i64 %.
  %5 = getelementptr inbounds nuw i8, ptr %0, i64 %.65
  %6 = load i32, ptr %5, align 8
  %7 = icmp eq i32 %6, 1
  %spec.select59 = select i1 %7, ptr %5, ptr @epl_placeholder_mac
  %.047 = load i32, ptr %4, align 4
  %8 = getelementptr inbounds nuw i8, ptr %0, i64 20
  %9 = load i32, ptr %8, align 4
  %10 = getelementptr inbounds nuw i8, ptr %0, i64 280
  %11 = load i32, ptr %10, align 8
  %12 = tail call i32 @conversation_pt_to_conversation_type(i32 noundef %11) #18
  %13 = tail call ptr @find_conversation(i32 noundef %9, ptr noundef nonnull @epl_placeholder_mac, ptr noundef nonnull @epl_placeholder_mac, i32 noundef %12, i32 noundef %.047, i32 noundef %.047, i32 noundef 196608) #18
  %.not53 = icmp eq ptr %13, null
  %.pre61 = load i32, ptr %8, align 4
  br i1 %.not53, label %23, label %14

14:                                               ; preds = %2
  %.not54 = icmp samesign ult i32 %1, 4
  br i1 %.not54, label %18, label %15

15:                                               ; preds = %14
  %16 = getelementptr inbounds nuw i8, ptr %13, i64 28
  %17 = load i32, ptr %16, align 4
  %.not55 = icmp eq i32 %17, %.pre61
  br i1 %.not55, label %18, label %23

18:                                               ; preds = %15, %14
  %19 = getelementptr inbounds nuw i8, ptr %13, i64 32
  %20 = load i32, ptr %19, align 8
  %21 = icmp ugt i32 %.pre61, %20
  br i1 %21, label %22, label %27

22:                                               ; preds = %18
  store i32 %.pre61, ptr %19, align 8
  br label %27

23:                                               ; preds = %2, %15
  %24 = load i32, ptr %10, align 8
  %25 = tail call i32 @conversation_pt_to_conversation_type(i32 noundef %24) #18
  %26 = tail call nonnull ptr @conversation_new(i32 noundef %.pre61, ptr noundef nonnull @epl_placeholder_mac, ptr noundef nonnull @epl_placeholder_mac, i32 noundef %25, i32 noundef %.047, i32 noundef %.047, i32 noundef 3) #18
  br label %27

27:                                               ; preds = %18, %22, %23
  %.048 = phi ptr [ %26, %23 ], [ %13, %22 ], [ %13, %18 ]
  %28 = load i32, ptr @proto_epl, align 4
  %29 = tail call ptr @conversation_get_proto_data(ptr noundef nonnull %.048, i32 noundef %28) #18
  %30 = icmp eq ptr %29, null
  br i1 %30, label %31, label %55

31:                                               ; preds = %27
  %32 = tail call ptr @wmem_file_scope() #18
  %33 = tail call noalias ptr @wmem_alloc0(ptr noundef %32, i64 noundef 152) #18
  %34 = trunc i32 %.047 to i8
  store i8 %34, ptr %33, align 8
  %35 = load i32, ptr @current_convo_generation, align 4
  %36 = getelementptr inbounds nuw i8, ptr %33, i64 16
  store i32 %35, ptr %36, align 8
  %37 = load ptr, ptr @pdo_mapping_scope, align 8
  %38 = tail call noalias ptr @wmem_array_new(ptr noundef %37, i64 noundef 72) #18
  %39 = getelementptr inbounds nuw i8, ptr %33, i64 24
  store ptr %38, ptr %39, align 8
  %40 = load ptr, ptr @pdo_mapping_scope, align 8
  %41 = tail call noalias ptr @wmem_array_new(ptr noundef %40, i64 noundef 72) #18
  %42 = getelementptr inbounds nuw i8, ptr %33, i64 32
  store ptr %41, ptr %42, align 8
  %43 = load ptr, ptr @epl_profiles_by_address, align 8
  %44 = tail call ptr @wmem_map_lookup(ptr noundef %43, ptr noundef nonnull %spec.select59) #18
  %45 = getelementptr inbounds nuw i8, ptr %33, i64 40
  store ptr %44, ptr %45, align 8
  %.not56 = icmp eq ptr %44, null
  br i1 %.not56, label %46, label %.thread

46:                                               ; preds = %31
  %47 = load ptr, ptr @epl_profiles_by_nodeid, align 8
  %.mask = and i32 %.047, 255
  %48 = zext nneg i32 %.mask to i64
  %49 = inttoptr i64 %48 to ptr
  %50 = tail call ptr @wmem_map_lookup(ptr noundef %47, ptr noundef %49) #18
  store ptr %50, ptr %45, align 8
  %.not57 = icmp eq ptr %50, null
  br i1 %.not57, label %51, label %.thread

51:                                               ; preds = %46
  %52 = load ptr, ptr @epl_default_profile, align 8
  store ptr %52, ptr %45, align 8
  br label %.thread

.thread:                                          ; preds = %31, %51, %46
  %53 = getelementptr inbounds nuw i8, ptr %33, i64 53
  store i8 0, ptr %53, align 1
  %54 = load i32, ptr @proto_epl, align 4
  tail call void @conversation_add_proto_data(ptr noundef nonnull %.048, i32 noundef %54, ptr noundef nonnull %33) #18
  br label %55

55:                                               ; preds = %.thread, %27
  %.049 = phi ptr [ %33, %.thread ], [ %29, %27 ]
  %56 = getelementptr inbounds nuw i8, ptr %.049, i64 16
  %57 = load i32, ptr %56, align 8
  %58 = load i32, ptr @current_convo_generation, align 4
  %.not58 = icmp eq i32 %57, %58
  br i1 %.not58, label %67, label %59

59:                                               ; preds = %55
  %60 = load ptr, ptr @pdo_mapping_scope, align 8
  %61 = tail call noalias ptr @wmem_array_new(ptr noundef %60, i64 noundef 72) #18
  %62 = getelementptr inbounds nuw i8, ptr %.049, i64 24
  store ptr %61, ptr %62, align 8
  %63 = load ptr, ptr @pdo_mapping_scope, align 8
  %64 = tail call noalias ptr @wmem_array_new(ptr noundef %63, i64 noundef 72) #18
  %65 = getelementptr inbounds nuw i8, ptr %.049, i64 32
  store ptr %64, ptr %65, align 8
  %66 = load i32, ptr @current_convo_generation, align 4
  store i32 %66, ptr %56, align 8
  br label %67

67:                                               ; preds = %59, %55
  ret ptr %.049
}